target datalayout = "e-m:e-p270:32:32-p271:32:32-p272:64:64-i64:64-i128:128-f80:128-n8:16:32:64-S128"
target triple = "x86_64-pc-linux-gnu"

%struct.CVodeMemRec = type { ptr, double, ptr, ptr, i32, i32, double, double, ptr, i32, i32, ptr, ptr, i32, i32, ptr, i32, i32, double, double, ptr, i32, i32, i32, i32, ptr, ptr, ptr, i32, i32, ptr, ptr, ptr, i32, double, i32, i32, double, ptr, ptr, ptr, i32, ptr, ptr, i32, i32, i32, double, ptr, ptr, ptr, [13 x ptr], ptr, ptr, ptr, ptr, ptr, ptr, ptr, ptr, ptr, [13 x ptr], ptr, ptr, ptr, ptr, [13 x ptr], ptr, ptr, ptr, ptr, ptr, i32, [13 x ptr], ptr, ptr, ptr, ptr, ptr, i32, i32, double, i32, i32, i32, i32, i32, double, double, double, double, double, double, double, double, [14 x double], [6 x double], [13 x double], double, double, double, double, double, double, double, double, i32, double, double, i32, double, double, ptr, i32, i64, i32, i32, i32, double, double, double, double, double, double, double, double, double, double, double, double, i64, i32, i64, i64, i64, i64, i64, i64, i64, i64, i64, ptr, i64, i64, ptr, i64, i64, ptr, i64, i64, i64, i64, i64, i64, i32, double, double, double, i64, i64, i64, i64, i64, i64, ptr, i32, ptr, i32, ptr, i32, ptr, i32, i32, i64, i32, ptr, i32, ptr, ptr, ptr, ptr, ptr, ptr, i32, i32, ptr, ptr, ptr, ptr, ptr, i64, double, i32, i32, i64, double, double, double, i32, i32, double, i32, i32, i32, i32, i32, i32, i32, i32, i32, i32, i32, i32, i32, i32, i32, i32, ptr, i64, i32, [6 x [4 x double]], i32, i64, ptr, i32, ptr, ptr, double, double, double, ptr, ptr, ptr, double, double, i32, i32, i64, ptr, i32, ptr, i32, i32, [13 x double], ptr, ptr, ptr, i32, ptr, i32 }
%struct._generic_N_Vector = type { ptr, ptr, ptr }
%struct._generic_N_Vector_Ops = type { ptr, ptr, ptr, ptr, ptr, ptr, ptr, ptr, ptr, ptr, ptr, ptr, ptr, ptr, ptr, ptr, ptr, ptr, ptr, ptr, ptr, ptr, ptr, ptr, ptr, ptr, ptr, ptr, ptr, ptr, ptr, ptr, ptr, ptr, ptr, ptr, ptr, ptr, ptr, ptr, ptr, ptr, ptr, ptr, ptr, ptr, ptr, ptr, ptr, ptr, ptr, ptr, ptr, ptr, ptr, ptr }

@.str = private unnamed_addr constant [115 x i8] c"generated/home/dtcxzyw/WorkSpace/Projects/compilers/llvm-opt-benchmark/bench/sundials/sundials/src/cvodes/cvodes.c\00", align 1
@.str.4 = private unnamed_addr constant [26 x i8] c"cvode_mem = NULL illegal.\00", align 1
@.str.13 = private unnamed_addr constant [37 x i8] c"Missing N_VMin routine from N_Vector\00", align 1
@.str.14 = private unnamed_addr constant [38 x i8] c"Quadrature integration not activated.\00", align 1
@.str.15 = private unnamed_addr constant [21 x i8] c"reltolQ < 0 illegal.\00", align 1
@.str.16 = private unnamed_addr constant [45 x i8] c"abstolQ has negative component(s) (illegal).\00", align 1
@__func__.CVodeQuadSVtolerances = private unnamed_addr constant [22 x i8] c"CVodeQuadSVtolerances\00", align 1
@.str.17 = private unnamed_addr constant [24 x i8] c"abstolQ = NULL illegal.\00", align 1

; Function Attrs: nounwind uwtable
define i32 @CVodeQuadSVtolerances(ptr noundef %0, double noundef %1, ptr noundef %2) #0 {
  %4 = alloca i32, align 4
  %5 = alloca ptr, align 8
  %6 = alloca double, align 8
  %7 = alloca ptr, align 8
  %8 = alloca ptr, align 8
  %9 = alloca double, align 8
  %10 = alloca i32, align 4
  store ptr %0, ptr %5, align 8, !tbaa !153
  store double %1, ptr %6, align 8, !tbaa !150
  store ptr %2, ptr %7, align 8, !tbaa !151
  call void @llvm.lifetime.start.p0(i64 8, ptr %8) #10
  call void @llvm.lifetime.start.p0(i64 8, ptr %9) #10
  %11 = load ptr, ptr %5, align 8, !tbaa !153
  %12 = icmp eq ptr %11, null
  br i1 %12, label %13, label %14

13:                                               ; preds = %3
  call void (ptr, i32, i32, ptr, ptr, ptr, ...) @cvProcessError(ptr noundef null, i32 noundef -21, i32 noundef 1321, ptr noundef @__func__.CVodeQuadSVtolerances, ptr noundef @.str, ptr noundef @.str.4)
  store i32 -21, ptr %4, align 4
  store i32 1, ptr %10, align 4
  br label %91

14:                                               ; preds = %3
  %15 = load ptr, ptr %5, align 8, !tbaa !153
  store ptr %15, ptr %8, align 8, !tbaa !10
  %16 = load ptr, ptr %8, align 8, !tbaa !10
  %17 = getelementptr inbounds nuw %struct.CVodeMemRec, ptr %16, i32 0, i32 210
  %18 = load i32, ptr %17, align 4, !tbaa !116
  %19 = icmp eq i32 %18, 0
  br i1 %19, label %20, label %22

20:                                               ; preds = %14
  %21 = load ptr, ptr %8, align 8, !tbaa !10
  call void (ptr, i32, i32, ptr, ptr, ptr, ...) @cvProcessError(ptr noundef %21, i32 noundef -30, i32 noundef 1330, ptr noundef @__func__.CVodeQuadSVtolerances, ptr noundef @.str, ptr noundef @.str.14)
  store i32 -30, ptr %4, align 4
  store i32 1, ptr %10, align 4
  br label %91

22:                                               ; preds = %14
  %23 = load double, ptr %6, align 8, !tbaa !150
  %24 = fcmp olt double %23, 0.000000e+00
  br i1 %24, label %25, label %27

25:                                               ; preds = %22
  %26 = load ptr, ptr %8, align 8, !tbaa !10
  call void (ptr, i32, i32, ptr, ptr, ptr, ...) @cvProcessError(ptr noundef %26, i32 noundef -22, i32 noundef 1339, ptr noundef @__func__.CVodeQuadSVtolerances, ptr noundef @.str, ptr noundef @.str.15)
  store i32 -22, ptr %4, align 4
  store i32 1, ptr %10, align 4
  br label %91

27:                                               ; preds = %22
  %28 = load ptr, ptr %7, align 8, !tbaa !151
  %29 = icmp eq ptr %28, null
  br i1 %29, label %30, label %32

30:                                               ; preds = %27
  %31 = load ptr, ptr %8, align 8, !tbaa !10
  call void (ptr, i32, i32, ptr, ptr, ptr, ...) @cvProcessError(ptr noundef %31, i32 noundef -22, i32 noundef 1346, ptr noundef @__func__.CVodeQuadSVtolerances, ptr noundef @.str, ptr noundef @.str.17)
  store i32 -22, ptr %4, align 4
  store i32 1, ptr %10, align 4
  br label %91

32:                                               ; preds = %27
  %33 = load ptr, ptr %7, align 8, !tbaa !151
  %34 = getelementptr inbounds nuw %struct._generic_N_Vector, ptr %33, i32 0, i32 1
  %35 = load ptr, ptr %34, align 8, !tbaa !157
  %36 = getelementptr inbounds nuw %struct._generic_N_Vector_Ops, ptr %35, i32 0, i32 23
  %37 = load ptr, ptr %36, align 8, !tbaa !218
  %38 = icmp eq ptr %37, null
  br i1 %38, label %39, label %41

39:                                               ; preds = %32
  %40 = load ptr, ptr %8, align 8, !tbaa !10
  call void (ptr, i32, i32, ptr, ptr, ptr, ...) @cvProcessError(ptr noundef %40, i32 noundef -22, i32 noundef 1353, ptr noundef @__func__.CVodeQuadSVtolerances, ptr noundef @.str, ptr noundef @.str.13)
  store i32 -22, ptr %4, align 4
  store i32 1, ptr %10, align 4
  br label %91

41:                                               ; preds = %32
  %42 = load ptr, ptr %7, align 8, !tbaa !151
  %43 = call double @N_VMin(ptr noundef %42)
  store double %43, ptr %9, align 8, !tbaa !150
  %44 = load double, ptr %9, align 8, !tbaa !150
  %45 = fcmp olt double %44, 0.000000e+00
  br i1 %45, label %46, label %48

46:                                               ; preds = %41
  %47 = load ptr, ptr %8, align 8, !tbaa !10
  call void (ptr, i32, i32, ptr, ptr, ptr, ...) @cvProcessError(ptr noundef %47, i32 noundef -22, i32 noundef 1360, ptr noundef @__func__.CVodeQuadSVtolerances, ptr noundef @.str, ptr noundef @.str.16)
  store i32 -22, ptr %4, align 4
  store i32 1, ptr %10, align 4
  br label %91

48:                                               ; preds = %41
  %49 = load ptr, ptr %8, align 8, !tbaa !10
  %50 = getelementptr inbounds nuw %struct.CVodeMemRec, ptr %49, i32 0, i32 17
  store i32 2, ptr %50, align 4, !tbaa !78
  %51 = load double, ptr %6, align 8, !tbaa !150
  %52 = load ptr, ptr %8, align 8, !tbaa !10
  %53 = getelementptr inbounds nuw %struct.CVodeMemRec, ptr %52, i32 0, i32 18
  store double %51, ptr %53, align 8, !tbaa !227
  %54 = load ptr, ptr %8, align 8, !tbaa !10
  %55 = getelementptr inbounds nuw %struct.CVodeMemRec, ptr %54, i32 0, i32 209
  %56 = load i32, ptr %55, align 8, !tbaa !115
  %57 = icmp ne i32 %56, 0
  br i1 %57, label %81, label %58

58:                                               ; preds = %48
  %59 = load ptr, ptr %8, align 8, !tbaa !10
  %60 = getelementptr inbounds nuw %struct.CVodeMemRec, ptr %59, i32 0, i32 65
  %61 = load ptr, ptr %60, align 8, !tbaa !226
  %62 = call ptr @N_VClone(ptr noundef %61)
  %63 = load ptr, ptr %8, align 8, !tbaa !10
  %64 = getelementptr inbounds nuw %struct.CVodeMemRec, ptr %63, i32 0, i32 20
  store ptr %62, ptr %64, align 8, !tbaa !229
  %65 = load ptr, ptr %8, align 8, !tbaa !10
  %66 = getelementptr inbounds nuw %struct.CVodeMemRec, ptr %65, i32 0, i32 160
  %67 = load i64, ptr %66, align 8, !tbaa !219
  %68 = load ptr, ptr %8, align 8, !tbaa !10
  %69 = getelementptr inbounds nuw %struct.CVodeMemRec, ptr %68, i32 0, i32 162
  %70 = load i64, ptr %69, align 8, !tbaa !110
  %71 = add nsw i64 %70, %67
  store i64 %71, ptr %69, align 8, !tbaa !110
  %72 = load ptr, ptr %8, align 8, !tbaa !10
  %73 = getelementptr inbounds nuw %struct.CVodeMemRec, ptr %72, i32 0, i32 161
  %74 = load i64, ptr %73, align 8, !tbaa !220
  %75 = load ptr, ptr %8, align 8, !tbaa !10
  %76 = getelementptr inbounds nuw %struct.CVodeMemRec, ptr %75, i32 0, i32 163
  %77 = load i64, ptr %76, align 8, !tbaa !111
  %78 = add nsw i64 %77, %74
  store i64 %78, ptr %76, align 8, !tbaa !111
  %79 = load ptr, ptr %8, align 8, !tbaa !10
  %80 = getelementptr inbounds nuw %struct.CVodeMemRec, ptr %79, i32 0, i32 209
  store i32 1, ptr %80, align 8, !tbaa !115
  br label %81

81:                                               ; preds = %58, %48
  %82 = load ptr, ptr %7, align 8, !tbaa !151
  %83 = load ptr, ptr %8, align 8, !tbaa !10
  %84 = getelementptr inbounds nuw %struct.CVodeMemRec, ptr %83, i32 0, i32 20
  %85 = load ptr, ptr %84, align 8, !tbaa !229
  call void @N_VScale(double noundef 1.000000e+00, ptr noundef %82, ptr noundef %85)
  %86 = load double, ptr %9, align 8, !tbaa !150
  %87 = fcmp oeq double %86, 0.000000e+00
  %88 = zext i1 %87 to i32
  %89 = load ptr, ptr %8, align 8, !tbaa !10
  %90 = getelementptr inbounds nuw %struct.CVodeMemRec, ptr %89, i32 0, i32 21
  store i32 %88, ptr %90, align 8, !tbaa !79
  store i32 0, ptr %4, align 4
  store i32 1, ptr %10, align 4
  br label %91

91:                                               ; preds = %81, %46, %39, %30, %25, %20, %13
  call void @llvm.lifetime.end.p0(i64 8, ptr %9) #10
  call void @llvm.lifetime.end.p0(i64 8, ptr %8) #10
  %92 = load i32, ptr %4, align 4
  ret i32 %92
}