; Function Attrs: nounwind uwtable
define range(i32 -30, 1) i32 @CVodeQuadSVtolerances(ptr noundef captures(address_is_null) %0, double noundef %1, ptr noundef %2) local_unnamed_addr #0 {
  %4 = icmp eq ptr %0, null
  br i1 %4, label %5, label %6

5:                                                ; preds = %3
  tail call void (ptr, i32, i32, ptr, ptr, ptr, ...) @cvProcessError(ptr noundef null, i32 noundef -21, i32 noundef 1321, ptr noundef nonnull @__func__.CVodeQuadSVtolerances, ptr noundef nonnull @.str, ptr noundef nonnull @.str.4)
  br label %53

6:                                                ; preds = %3
  %7 = getelementptr inbounds nuw i8, ptr %0, i64 2132
  %8 = load i32, ptr %7, align 4, !tbaa !149
  %9 = icmp eq i32 %8, 0
  br i1 %9, label %10, label %11

10:                                               ; preds = %6
  tail call void (ptr, i32, i32, ptr, ptr, ptr, ...) @cvProcessError(ptr noundef nonnull %0, i32 noundef -30, i32 noundef 1330, ptr noundef nonnull @__func__.CVodeQuadSVtolerances, ptr noundef nonnull @.str, ptr noundef nonnull @.str.14)
  br label %53

11:                                               ; preds = %6
  %12 = fcmp olt double %1, 0.000000e+00
  br i1 %12, label %13, label %14

13:                                               ; preds = %11
  tail call void (ptr, i32, i32, ptr, ptr, ptr, ...) @cvProcessError(ptr noundef nonnull %0, i32 noundef -22, i32 noundef 1339, ptr noundef nonnull @__func__.CVodeQuadSVtolerances, ptr noundef nonnull @.str, ptr noundef nonnull @.str.15)
  br label %53

14:                                               ; preds = %11
  %15 = icmp eq ptr %2, null
  br i1 %15, label %16, label %17

16:                                               ; preds = %14
  tail call void (ptr, i32, i32, ptr, ptr, ptr, ...) @cvProcessError(ptr noundef nonnull %0, i32 noundef -22, i32 noundef 1346, ptr noundef nonnull @__func__.CVodeQuadSVtolerances, ptr noundef nonnull @.str, ptr noundef nonnull @.str.17)
  br label %53

17:                                               ; preds = %14
  %18 = getelementptr inbounds nuw i8, ptr %2, i64 8
  %19 = load ptr, ptr %18, align 8, !tbaa !77
  %20 = getelementptr inbounds nuw i8, ptr %19, i64 184
  %21 = load ptr, ptr %20, align 8, !tbaa !138
  %22 = icmp eq ptr %21, null
  br i1 %22, label %23, label %24

23:                                               ; preds = %17
  tail call void (ptr, i32, i32, ptr, ptr, ptr, ...) @cvProcessError(ptr noundef nonnull %0, i32 noundef -22, i32 noundef 1353, ptr noundef nonnull @__func__.CVodeQuadSVtolerances, ptr noundef nonnull @.str, ptr noundef nonnull @.str.13)
  br label %53

24:                                               ; preds = %17
  %25 = tail call double @N_VMin(ptr noundef nonnull %2) #13
  %26 = fcmp olt double %25, 0.000000e+00
  br i1 %26, label %27, label %28

27:                                               ; preds = %24
  tail call void (ptr, i32, i32, ptr, ptr, ptr, ...) @cvProcessError(ptr noundef nonnull %0, i32 noundef -22, i32 noundef 1360, ptr noundef nonnull @__func__.CVodeQuadSVtolerances, ptr noundef nonnull @.str, ptr noundef nonnull @.str.16)
  br label %53

28:                                               ; preds = %24
  %29 = getelementptr inbounds nuw i8, ptr %0, i64 108
  store i32 2, ptr %29, align 4, !tbaa !150
  %30 = getelementptr inbounds nuw i8, ptr %0, i64 112
  store double %1, ptr %30, align 8, !tbaa !151
  %31 = getelementptr inbounds nuw i8, ptr %0, i64 2128
  %32 = load i32, ptr %31, align 8, !tbaa !153
  %.not = icmp eq i32 %32, 0
  br i1 %.not, label %33, label %._crit_edge

._crit_edge:                                      ; preds = %28
  %.phi.trans.insert = getelementptr inbounds nuw i8, ptr %0, i64 128
  %.pre = load ptr, ptr %.phi.trans.insert, align 8, !tbaa !154
  br label %48

33:                                               ; preds = %28
  %34 = getelementptr inbounds nuw i8, ptr %0, i64 640
  %35 = load ptr, ptr %34, align 8, !tbaa !144
  %36 = tail call ptr @N_VClone(ptr noundef %35) #13
  %37 = getelementptr inbounds nuw i8, ptr %0, i64 128
  store ptr %36, ptr %37, align 8, !tbaa !154
  %38 = getelementptr inbounds nuw i8, ptr %0, i64 1800
  %39 = load i64, ptr %38, align 8, !tbaa !139
  %40 = getelementptr inbounds nuw i8, ptr %0, i64 1816
  %41 = load i64, ptr %40, align 8, !tbaa !52
  %42 = add nsw i64 %41, %39
  store i64 %42, ptr %40, align 8, !tbaa !52
  %43 = getelementptr inbounds nuw i8, ptr %0, i64 1808
  %44 = load i64, ptr %43, align 8, !tbaa !140
  %45 = getelementptr inbounds nuw i8, ptr %0, i64 1824
  %46 = load i64, ptr %45, align 8, !tbaa !53
  %47 = add nsw i64 %46, %44
  store i64 %47, ptr %45, align 8, !tbaa !53
  store i32 1, ptr %31, align 8, !tbaa !153
  br label %48

48:                                               ; preds = %._crit_edge, %33
  %49 = phi ptr [ %.pre, %._crit_edge ], [ %36, %33 ]
  tail call void @N_VScale(double noundef 1.000000e+00, ptr noundef nonnull %2, ptr noundef %49) #13
  %50 = fcmp oeq double %25, 0.000000e+00
  %51 = zext i1 %50 to i32
  %52 = getelementptr inbounds nuw i8, ptr %0, i64 136
  store i32 %51, ptr %52, align 8, !tbaa !42
  br label %53

53:                                               ; preds = %48, %27, %23, %16, %13, %10, %5
  %.0 = phi i32 [ -21, %5 ], [ -30, %10 ], [ -22, %13 ], [ -22, %16 ], [ -22, %23 ], [ -22, %27 ], [ 0, %48 ]
  ret i32 %.0
}